target datalayout = "e-m:e-p270:32:32-p271:32:32-p272:64:64-i64:64-i128:128-f80:128-n8:16:32:64-S128"
target triple = "x86_64-pc-linux-gnu"

%struct.cli_bc_type = type { i32, ptr, i32, i32, i32 }
%struct.pe_image_file_hdr = type { i32, i16, i16, i32, i32, i32, i16, i16 }
%struct.pe_image_optional_hdr64 = type { i16, i8, i8, i32, i32, i32, i32, i32, i64, i32, i32, i16, i16, i16, i16, i16, i16, i32, i32, i32, i32, i16, i16, i64, i64, i64, i64, i32, i32 }
%struct.pe_image_data_dir = type { i32, i32 }
%struct.cli_bc_ctx = type { i8, i16, i32, ptr, ptr, i32, i32, ptr, ptr, ptr, i32, i32, i64, ptr, ptr, ptr, %struct.cli_bc_hooks, %struct.cli_exe_info, [64 x i32], [64 x i32], i32, ptr, ptr, i32, i32, i32, i32, ptr, i32, ptr, ptr, i32, i32, i32, i32, i32, i32, ptr, ptr, ptr, ptr, ptr, ptr, ptr, i32, i32, i32, i32, ptr, ptr, ptr, ptr, ptr, i32, i32, i32, i32, ptr, ptr, ptr, ptr, i32, i32, i32, ptr, i32, ptr, i32, i32, ptr, i32 }
%struct.cli_bc_hooks = type { ptr, ptr, ptr, ptr, ptr }
%struct.cli_exe_info = type { ptr, i32, i32, i16, i32, i32, %struct.cli_hashset, i32, i32, i32, i32, i32, i32, i32, i32, i32, %struct.pe_image_file_hdr, %union.anon, [16 x %struct.pe_image_data_dir] }
%struct.cli_hashset = type { ptr, ptr, ptr, i32, i32, i32, i32 }
%union.anon = type { %struct.pe_image_optional_hdr64 }
%struct.cli_bc = type { %struct.bytecode_metadata, i32, i32, i32, i32, ptr, ptr, ptr, ptr, i64, i32, ptr, ptr, ptr, ptr, i32, i16, ptr, i32, i32, i32, i32, ptr, i32, i32, ptr }
%struct.bytecode_metadata = type { ptr, ptr, i64, i32, i32, i32, i32, i32 }
%struct.cli_bc_func = type { i8, i16, i32, i32, i32, i32, i16, i16, ptr, i32, ptr, ptr, ptr, ptr }

@.str.1 = private unnamed_addr constant [41 x i8] c"bytecode: function ID doesn't exist: %u\0A\00", align 1
@.str.2 = private unnamed_addr constant [50 x i8] c"bytecode: error allocating memory for parameters\0A\00", align 1
@.str.3 = private unnamed_addr constant [47 x i8] c"bytecode: error allocating memory for opsizes\0A\00", align 1

; Function Attrs: nounwind uwtable
define internal i32 @typealign(ptr noundef %0, i16 noundef zeroext %1) #0 {
  %3 = alloca i32, align 4
  %4 = alloca ptr, align 8
  %5 = alloca i16, align 2
  %6 = alloca i32, align 4
  store ptr %0, ptr %4, align 8
  store i16 %1, ptr %5, align 2
  %7 = load i16, ptr %5, align 2
  %8 = zext i16 %7 to i32
  %9 = and i32 %8, 32767
  %10 = trunc i32 %9 to i16
  store i16 %10, ptr %5, align 2
  %11 = load i16, ptr %5, align 2
  %12 = zext i16 %11 to i32
  %13 = icmp sle i32 %12, 64
  br i1 %13, label %14, label %25

14:                                               ; preds = %2
  %15 = load ptr, ptr %4, align 8
  %16 = load i16, ptr %5, align 2
  %17 = call i32 @typesize(ptr noundef %15, i16 noundef zeroext %16)
  store i32 %17, ptr %6, align 4
  %18 = load i32, ptr %6, align 4
  %19 = icmp ne i32 %18, 0
  br i1 %19, label %20, label %22

20:                                               ; preds = %14
  %21 = load i32, ptr %6, align 4
  br label %23

22:                                               ; preds = %14
  br label %23

23:                                               ; preds = %22, %20
  %24 = phi i32 [ %21, %20 ], [ 1, %22 ]
  store i32 %24, ptr %3, align 4
  br label %36

25:                                               ; preds = %2
  %26 = load ptr, ptr %4, align 8
  %27 = getelementptr inbounds %struct.cli_bc, ptr %26, i32 0, i32 6
  %28 = load ptr, ptr %27, align 8
  %29 = load i16, ptr %5, align 2
  %30 = zext i16 %29 to i32
  %31 = sub nsw i32 %30, 65
  %32 = sext i32 %31 to i64
  %33 = getelementptr inbounds %struct.cli_bc_type, ptr %28, i64 %32
  %34 = getelementptr inbounds %struct.cli_bc_type, ptr %33, i32 0, i32 4
  %35 = load i32, ptr %34, align 8
  store i32 %35, ptr %3, align 4
  br label %36

36:                                               ; preds = %25, %23
  %37 = load i32, ptr %3, align 4
  ret i32 %37
}

; Function Attrs: nounwind uwtable
define i32 @cli_bytecode_context_setfuncid(ptr noundef %0, ptr noundef %1, i32 noundef %2) #0 {
  %4 = alloca i32, align 4
  %5 = alloca ptr, align 8
  %6 = alloca ptr, align 8
  %7 = alloca i32, align 4
  %8 = alloca i32, align 4
  %9 = alloca i32, align 4
  %10 = alloca ptr, align 8
  %11 = alloca i32, align 4
  store ptr %0, ptr %5, align 8
  store ptr %1, ptr %6, align 8
  store i32 %2, ptr %7, align 4
  store i32 0, ptr %9, align 4
  %12 = load i32, ptr %7, align 4
  %13 = load ptr, ptr %6, align 8
  %14 = getelementptr inbounds %struct.cli_bc, ptr %13, i32 0, i32 4
  %15 = load i32, ptr %14, align 4
  %16 = icmp uge i32 %12, %15
  br i1 %16, label %17, label %19

17:                                               ; preds = %3
  %18 = load i32, ptr %7, align 4
  call void (ptr, ...) @cli_errmsg(ptr noundef @.str.1, i32 noundef %18)
  store i32 3, ptr %4, align 4
  br label %146

19:                                               ; preds = %3
  %20 = load ptr, ptr %6, align 8
  %21 = getelementptr inbounds %struct.cli_bc, ptr %20, i32 0, i32 5
  %22 = load ptr, ptr %21, align 8
  %23 = load i32, ptr %7, align 4
  %24 = zext i32 %23 to i64
  %25 = getelementptr inbounds %struct.cli_bc_func, ptr %22, i64 %24
  %26 = load ptr, ptr %5, align 8
  %27 = getelementptr inbounds %struct.cli_bc_ctx, ptr %26, i32 0, i32 4
  store ptr %25, ptr %27, align 8
  store ptr %25, ptr %10, align 8
  %28 = load ptr, ptr %6, align 8
  %29 = load ptr, ptr %5, align 8
  %30 = getelementptr inbounds %struct.cli_bc_ctx, ptr %29, i32 0, i32 3
  store ptr %28, ptr %30, align 8
  %31 = load ptr, ptr %10, align 8
  %32 = getelementptr inbounds %struct.cli_bc_func, ptr %31, i32 0, i32 0
  %33 = load i8, ptr %32, align 8
  %34 = zext i8 %33 to i32
  %35 = load ptr, ptr %5, align 8
  %36 = getelementptr inbounds %struct.cli_bc_ctx, ptr %35, i32 0, i32 2
  store i32 %34, ptr %36, align 4
  %37 = load i32, ptr %7, align 4
  %38 = trunc i32 %37 to i16
  %39 = load ptr, ptr %5, align 8
  %40 = getelementptr inbounds %struct.cli_bc_ctx, ptr %39, i32 0, i32 1
  store i16 %38, ptr %40, align 2
  %41 = load ptr, ptr %10, align 8
  %42 = getelementptr inbounds %struct.cli_bc_func, ptr %41, i32 0, i32 0
  %43 = load i8, ptr %42, align 8
  %44 = icmp ne i8 %43, 0
  br i1 %44, label %45, label %129

45:                                               ; preds = %19
  %46 = load ptr, ptr %10, align 8
  %47 = getelementptr inbounds %struct.cli_bc_func, ptr %46, i32 0, i32 0
  %48 = load i8, ptr %47, align 8
  %49 = zext i8 %48 to i64
  %50 = mul i64 4, %49
  %51 = call noalias ptr @malloc(i64 noundef %50) #11
  %52 = load ptr, ptr %5, align 8
  %53 = getelementptr inbounds %struct.cli_bc_ctx, ptr %52, i32 0, i32 9
  store ptr %51, ptr %53, align 8
  %54 = load ptr, ptr %5, align 8
  %55 = getelementptr inbounds %struct.cli_bc_ctx, ptr %54, i32 0, i32 9
  %56 = load ptr, ptr %55, align 8
  %57 = icmp ne ptr %56, null
  br i1 %57, label %59, label %58

58:                                               ; preds = %45
  call void (ptr, ...) @cli_errmsg(ptr noundef @.str.2)
  store i32 20, ptr %4, align 4
  br label %146

59:                                               ; preds = %45
  %60 = load ptr, ptr %10, align 8
  %61 = getelementptr inbounds %struct.cli_bc_func, ptr %60, i32 0, i32 0
  %62 = load i8, ptr %61, align 8
  %63 = zext i8 %62 to i64
  %64 = mul i64 2, %63
  %65 = call noalias ptr @malloc(i64 noundef %64) #11
  %66 = load ptr, ptr %5, align 8
  %67 = getelementptr inbounds %struct.cli_bc_ctx, ptr %66, i32 0, i32 7
  store ptr %65, ptr %67, align 8
  %68 = load ptr, ptr %5, align 8
  %69 = getelementptr inbounds %struct.cli_bc_ctx, ptr %68, i32 0, i32 7
  %70 = load ptr, ptr %69, align 8
  %71 = icmp ne ptr %70, null
  br i1 %71, label %73, label %72

72:                                               ; preds = %59
  call void (ptr, ...) @cli_errmsg(ptr noundef @.str.3)
  store i32 20, ptr %4, align 4
  br label %146

73:                                               ; preds = %59
  store i32 0, ptr %8, align 4
  br label %74

74:                                               ; preds = %125, %73
  %75 = load i32, ptr %8, align 4
  %76 = load ptr, ptr %10, align 8
  %77 = getelementptr inbounds %struct.cli_bc_func, ptr %76, i32 0, i32 0
  %78 = load i8, ptr %77, align 8
  %79 = zext i8 %78 to i32
  %80 = icmp ult i32 %75, %79
  br i1 %80, label %81, label %128

81:                                               ; preds = %74
  %82 = load ptr, ptr %6, align 8
  %83 = load ptr, ptr %10, align 8
  %84 = getelementptr inbounds %struct.cli_bc_func, ptr %83, i32 0, i32 8
  %85 = load ptr, ptr %84, align 8
  %86 = load i32, ptr %8, align 4
  %87 = zext i32 %86 to i64
  %88 = getelementptr inbounds i16, ptr %85, i64 %87
  %89 = load i16, ptr %88, align 2
  %90 = call i32 @typealign(ptr noundef %82, i16 noundef zeroext %89)
  store i32 %90, ptr %11, align 4
  %91 = load i32, ptr %9, align 4
  %92 = load i32, ptr %11, align 4
  %93 = add i32 %91, %92
  %94 = sub i32 %93, 1
  %95 = load i32, ptr %11, align 4
  %96 = sub i32 %95, 1
  %97 = xor i32 %96, -1
  %98 = and i32 %94, %97
  store i32 %98, ptr %9, align 4
  %99 = load i32, ptr %9, align 4
  %100 = load ptr, ptr %5, align 8
  %101 = getelementptr inbounds %struct.cli_bc_ctx, ptr %100, i32 0, i32 9
  %102 = load ptr, ptr %101, align 8
  %103 = load i32, ptr %8, align 4
  %104 = zext i32 %103 to i64
  %105 = getelementptr inbounds i32, ptr %102, i64 %104
  store i32 %99, ptr %105, align 4
  %106 = load ptr, ptr %6, align 8
  %107 = load ptr, ptr %10, align 8
  %108 = getelementptr inbounds %struct.cli_bc_func, ptr %107, i32 0, i32 8
  %109 = load ptr, ptr %108, align 8
  %110 = load i32, ptr %8, align 4
  %111 = zext i32 %110 to i64
  %112 = getelementptr inbounds i16, ptr %109, i64 %111
  %113 = load i16, ptr %112, align 2
  %114 = call i32 @typesize(ptr noundef %106, i16 noundef zeroext %113)
  %115 = trunc i32 %114 to i16
  %116 = load ptr, ptr %5, align 8
  %117 = getelementptr inbounds %struct.cli_bc_ctx, ptr %116, i32 0, i32 7
  %118 = load ptr, ptr %117, align 8
  %119 = load i32, ptr %8, align 4
  %120 = zext i32 %119 to i64
  %121 = getelementptr inbounds i16, ptr %118, i64 %120
  store i16 %115, ptr %121, align 2
  %122 = zext i16 %115 to i32
  %123 = load i32, ptr %9, align 4
  %124 = add i32 %123, %122
  store i32 %124, ptr %9, align 4
  br label %125

125:                                              ; preds = %81
  %126 = load i32, ptr %8, align 4
  %127 = add i32 %126, 1
  store i32 %127, ptr %8, align 4
  br label %74

128:                                              ; preds = %74
  br label %129

129:                                              ; preds = %128, %19
  %130 = load i32, ptr %9, align 4
  %131 = add i32 %130, 8
  store i32 %131, ptr %9, align 4
  %132 = load i32, ptr %9, align 4
  %133 = load ptr, ptr %5, align 8
  %134 = getelementptr inbounds %struct.cli_bc_ctx, ptr %133, i32 0, i32 6
  store i32 %132, ptr %134, align 4
  %135 = load i32, ptr %9, align 4
  %136 = zext i32 %135 to i64
  %137 = call noalias ptr @malloc(i64 noundef %136) #11
  %138 = load ptr, ptr %5, align 8
  %139 = getelementptr inbounds %struct.cli_bc_ctx, ptr %138, i32 0, i32 8
  store ptr %137, ptr %139, align 8
  %140 = load ptr, ptr %5, align 8
  %141 = getelementptr inbounds %struct.cli_bc_ctx, ptr %140, i32 0, i32 8
  %142 = load ptr, ptr %141, align 8
  %143 = icmp ne ptr %142, null
  br i1 %143, label %145, label %144

144:                                              ; preds = %129
  call void (ptr, ...) @cli_errmsg(ptr noundef @.str.2)
  store i32 20, ptr %4, align 4
  br label %146

145:                                              ; preds = %129
  store i32 0, ptr %4, align 4
  br label %146

146:                                              ; preds = %145, %144, %72, %58, %17
  %147 = load i32, ptr %4, align 4
  ret i32 %147
}