; Function Attrs: nounwind uwtable
define noundef i32 @cli_bytecode_context_setfuncid(ptr nocapture noundef %0, ptr noundef %1, i32 noundef %2) local_unnamed_addr #0 {
  %4 = getelementptr inbounds i8, ptr %1, i64 60
  %5 = load i32, ptr %4, align 4
  %.not = icmp ugt i32 %5, %2
  br i1 %.not, label %7, label %6

6:                                                ; preds = %3
  tail call void (ptr, ...) @cli_errmsg(ptr noundef nonnull @.str.1, i32 noundef %2) #25
  br label %76

7:                                                ; preds = %3
  %8 = getelementptr inbounds i8, ptr %1, i64 64
  %9 = load ptr, ptr %8, align 8
  %10 = zext i32 %2 to i64
  %11 = getelementptr inbounds %struct.cli_bc_func, ptr %9, i64 %10
  %12 = getelementptr inbounds i8, ptr %0, i64 16
  store ptr %11, ptr %12, align 8
  %13 = getelementptr inbounds i8, ptr %0, i64 8
  store ptr %1, ptr %13, align 8
  %14 = load i8, ptr %11, align 8
  %15 = zext i8 %14 to i32
  %16 = getelementptr inbounds i8, ptr %0, i64 4
  store i32 %15, ptr %16, align 4
  %17 = trunc i32 %2 to i16
  %18 = getelementptr inbounds i8, ptr %0, i64 2
  store i16 %17, ptr %18, align 2
  %19 = load i8, ptr %11, align 8
  %.not48 = icmp eq i8 %19, 0
  br i1 %.not48, label %.loopexit, label %20

20:                                               ; preds = %7
  %21 = zext i8 %19 to i64
  %22 = shl nuw nsw i64 %21, 2
  %23 = tail call noalias ptr @malloc(i64 noundef %22) #26
  %24 = getelementptr inbounds i8, ptr %0, i64 48
  store ptr %23, ptr %24, align 8
  %.not49 = icmp eq ptr %23, null
  br i1 %.not49, label %25, label %26

25:                                               ; preds = %20
  tail call void (ptr, ...) @cli_errmsg(ptr noundef nonnull @.str.2) #25
  br label %76

26:                                               ; preds = %20
  %27 = load i8, ptr %11, align 8
  %28 = zext i8 %27 to i64
  %29 = shl nuw nsw i64 %28, 1
  %30 = tail call noalias ptr @malloc(i64 noundef %29) #26
  %31 = getelementptr inbounds i8, ptr %0, i64 32
  store ptr %30, ptr %31, align 8
  %.not50 = icmp eq ptr %30, null
  br i1 %.not50, label %35, label %.preheader

.preheader:                                       ; preds = %26
  %32 = load i8, ptr %11, align 8
  %.not54 = icmp eq i8 %32, 0
  br i1 %.not54, label %.loopexit, label %.lr.ph

.lr.ph:                                           ; preds = %.preheader
  %33 = getelementptr inbounds i8, ptr %11, i64 24
  %34 = getelementptr inbounds i8, ptr %1, i64 72
  br label %36

35:                                               ; preds = %26
  tail call void (ptr, ...) @cli_errmsg(ptr noundef nonnull @.str.3) #25
  br label %76

36:                                               ; preds = %.lr.ph, %typealign.exit
  %indvars.iv = phi i64 [ 0, %.lr.ph ], [ %indvars.iv.next, %typealign.exit ]
  %.04452 = phi i32 [ 0, %.lr.ph ], [ %66, %typealign.exit ]
  %37 = load ptr, ptr %33, align 8
  %38 = getelementptr inbounds i16, ptr %37, i64 %indvars.iv
  %39 = load i16, ptr %38, align 2
  %40 = and i16 %39, 32767
  %41 = icmp ult i16 %40, 65
  br i1 %41, label %42, label %45

42:                                               ; preds = %36
  %43 = tail call fastcc i32 @typesize(ptr noundef %1, i16 noundef zeroext %40)
  %44 = tail call i32 @llvm.umax.i32(i32 %43, i32 1)
  br label %typealign.exit

45:                                               ; preds = %36
  %46 = zext nneg i16 %40 to i64
  %47 = load ptr, ptr %34, align 8
  %48 = add nuw nsw i64 %46, 4294967231
  %49 = and i64 %48, 4294967295
  %50 = getelementptr inbounds %struct.cli_bc_type, ptr %47, i64 %49, i32 4
  %51 = load i32, ptr %50, align 8
  br label %typealign.exit

typealign.exit:                                   ; preds = %42, %45
  %.0.i = phi i32 [ %44, %42 ], [ %51, %45 ]
  %52 = add i32 %.04452, -1
  %53 = add i32 %52, %.0.i
  %54 = sub i32 0, %.0.i
  %55 = and i32 %53, %54
  %56 = load ptr, ptr %24, align 8
  %57 = getelementptr inbounds i32, ptr %56, i64 %indvars.iv
  store i32 %55, ptr %57, align 4
  %58 = load ptr, ptr %33, align 8
  %59 = getelementptr inbounds i16, ptr %58, i64 %indvars.iv
  %60 = load i16, ptr %59, align 2
  %61 = tail call fastcc i32 @typesize(ptr noundef %1, i16 noundef zeroext %60)
  %62 = trunc i32 %61 to i16
  %63 = load ptr, ptr %31, align 8
  %64 = getelementptr inbounds i16, ptr %63, i64 %indvars.iv
  store i16 %62, ptr %64, align 2
  %65 = and i32 %61, 65535
  %66 = add i32 %65, %55
  %indvars.iv.next = add nuw nsw i64 %indvars.iv, 1
  %67 = load i8, ptr %11, align 8
  %68 = zext i8 %67 to i64
  %69 = icmp ult i64 %indvars.iv.next, %68
  br i1 %69, label %36, label %.loopexit.loopexit

.loopexit.loopexit:                               ; preds = %typealign.exit
  %70 = add i32 %66, 8
  br label %.loopexit

.loopexit:                                        ; preds = %.loopexit.loopexit, %.preheader, %7
  %.1 = phi i32 [ 8, %7 ], [ 8, %.preheader ], [ %70, %.loopexit.loopexit ]
  %71 = getelementptr inbounds i8, ptr %0, i64 28
  store i32 %.1, ptr %71, align 4
  %72 = zext i32 %.1 to i64
  %73 = tail call noalias ptr @malloc(i64 noundef %72) #26
  %74 = getelementptr inbounds i8, ptr %0, i64 40
  store ptr %73, ptr %74, align 8
  %.not51 = icmp eq ptr %73, null
  br i1 %.not51, label %75, label %76

75:                                               ; preds = %.loopexit
  tail call void (ptr, ...) @cli_errmsg(ptr noundef nonnull @.str.2) #25
  br label %76

76:                                               ; preds = %.loopexit, %75, %35, %25, %6
  %.0 = phi i32 [ 3, %6 ], [ 20, %75 ], [ 20, %35 ], [ 20, %25 ], [ 0, %.loopexit ]
  ret i32 %.0
}